target datalayout = "e-m:e-p270:32:32-p271:32:32-p272:64:64-i64:64-i128:128-f80:128-n8:16:32:64-S128"
target triple = "x86_64-pc-linux-gnu"

%struct.redisServer = type { i32, i64, ptr, ptr, ptr, i32, i32, i32, i32, i32, ptr, ptr, ptr, ptr, ptr, i32, i32, i32, i32, i64, i32, i32, i32, i32, ptr, i32, i32, [41 x i8], i32, i64, i32, i32, i32, ptr, ptr, i32, i32, i64, ptr, ptr, ptr, ptr, [2 x i32], i32, i32, i32, i32, i32, i32, [16 x ptr], i32, ptr, ptr, i32, [8 x %struct.connListener], i32, %struct.connListener, ptr, ptr, ptr, ptr, ptr, ptr, ptr, ptr, ptr, ptr, i32, ptr, i32, ptr, [3 x %struct.pause_event], [256 x i8], ptr, i64, i32, i32, [128 x i32], i32, i32, i64, i32, i32, i32, i32, i32, i64, i64, i64, i64, i64, i64, i64, i64, i64, i64, double, i64, i64, i64, i64, i64, i64, i64, i64, i64, i64, i64, i64, i64, i64, i64, i64, i64, i64, i64, i64, i64, double, i64, i64, i64, i64, i64, ptr, i64, i64, i64, %struct.malloc_stats, i64, i64, i64, i64, i64, i64, i64, i64, i64, i64, i64, i64, double, [4 x i64], i64, i64, i64, i64, [128 x i64], [128 x i64], i64, i64, [7 x %struct.anon], i64, i64, i64, i64, i64, i64, [4 x %struct.durationStats], i32, i32, i32, i32, i32, i32, i32, i32, i32, i32, i32, i32, i64, i32, i32, i32, i32, i64, i64, i32, i32, i32, i32, i32, ptr, [3 x %struct.clientBufferLimitsConfig], i32, i32, i32, ptr, i32, i32, i32, i32, i32, i32, ptr, ptr, i32, i32, i64, i64, i64, i64, i64, i32, i32, ptr, i32, i32, i64, i64, i64, i64, i64, i32, i32, i64, i32, i32, i32, i32, i32, i32, i32, i32, ptr, i32, i64, i64, i64, i64, i32, ptr, i32, ptr, i32, i32, i32, i64, i64, i64, i64, i32, i32, i32, i32, i32, i32, ptr, i32, i32, ptr, i32, i32, i32, [2 x i32], i32, %struct.redisOpArray, i32, ptr, i32, ptr, i32, i32, i32, i32, i32, i32, i32, [41 x i8], [41 x i8], i64, i64, i64, i64, i32, i32, ptr, i64, i64, %struct.replDataBuf, i64, i64, i32, i32, i32, i32, i32, i32, i32, i32, i32, i64, ptr, i64, ptr, ptr, ptr, i32, i32, ptr, ptr, i32, i32, i32, i64, i64, i64, i64, ptr, ptr, i32, ptr, i64, i32, i32, i32, i64, i32, i32, i32, i32, ptr, i32, i32, [41 x i8], i64, i32, ptr, i32, i32, i64, i64, i32, i32, i32, i32, i32, i64, [3 x i32], i32, i32, i32, [10 x i32], ptr, ptr, i32, i64, ptr, ptr, i32, i32, i32, i32, i64, i64, i64, i64, i64, i64, i64, i64, i64, i64, i32, i32, i64, i64, i32, i64, i64, i64, i64, i64, ptr, ptr, i32, ptr, i32, i32, i32, i32, i64, i64, ptr, ptr, i32, i32, i32, i32, i32, ptr, ptr, ptr, i32, i32, i32, i32, i32, i32, i32, i64, i32, i32, i64, i32, i32, i32, i32, i32, i32, i32, i64, ptr, ptr, i64, ptr, i32, %struct.aclInfo, i32, i64, i32, i32, i32, %struct.redisTLSContextConfig, ptr, ptr, ptr, ptr, ptr, i64, i32, ptr, i32, i32, i32, i64, i32, ptr }
%struct.connListener = type { [16 x i32], i32, ptr, i32, i32, ptr, ptr }
%struct.pause_event = type { i32, i64 }
%struct.malloc_stats = type { i64, i64, i64, i64, i64, i64, i64, i64, i64, i64, i64 }
%struct.anon = type { i64, i64, [16 x i64], i32 }
%struct.durationStats = type { i64, i64, i64 }
%struct.clientBufferLimitsConfig = type { i64, i64, i64 }
%struct.redisOpArray = type { ptr, i32, i32 }
%struct.replDataBuf = type { ptr, i64, i64, i64, i64 }
%struct.aclInfo = type { i64, i64, i64, i64 }
%struct.redisTLSContextConfig = type { ptr, ptr, ptr, ptr, ptr, ptr, ptr, ptr, ptr, ptr, ptr, ptr, i32, i32, i32, i32 }
%struct.aofInfo = type { ptr, i64, i32, i64, i64 }
%struct.aofManifest = type { ptr, ptr, ptr, i64, i64, i32 }
%struct.list = type { ptr, ptr, ptr, ptr, ptr, i64 }
%struct.listNode = type { ptr, ptr, ptr }

@.str.1 = private unnamed_addr constant [6 x i8] c"aof.c\00", align 1
@server = external global %struct.redisServer, align 8
@.str.15 = private unnamed_addr constant [11 x i8] c"am != NULL\00", align 1
@.str.37 = private unnamed_addr constant [5 x i8] c".aof\00", align 1
@.str.38 = private unnamed_addr constant [12 x i8] c"%s.%lld%s%s\00", align 1
@.str.40 = private unnamed_addr constant [6 x i8] c".incr\00", align 1

; Function Attrs: nounwind uwtable
define dso_local ptr @aofInfoCreate() #0 {
  %1 = alloca ptr, align 8
  call void @llvm.lifetime.start.p0(i64 8, ptr %1) #12
  %2 = call noalias ptr @zcalloc(i64 noundef 40) #13
  store ptr %2, ptr %1, align 8, !tbaa !5
  %3 = load ptr, ptr %1, align 8, !tbaa !5
  %4 = getelementptr inbounds nuw %struct.aofInfo, ptr %3, i32 0, i32 3
  store i64 -1, ptr %4, align 8, !tbaa !9
  %5 = load ptr, ptr %1, align 8, !tbaa !5
  %6 = getelementptr inbounds nuw %struct.aofInfo, ptr %5, i32 0, i32 4
  store i64 -1, ptr %6, align 8, !tbaa !14
  %7 = load ptr, ptr %1, align 8, !tbaa !5
  call void @llvm.lifetime.end.p0(i64 8, ptr %1) #12
  ret ptr %7
}

; Function Attrs: nounwind uwtable
define dso_local ptr @getNewIncrAofName(ptr noundef %0, i64 noundef %1) #0 {
  %3 = alloca ptr, align 8
  %4 = alloca i64, align 8
  %5 = alloca ptr, align 8
  store ptr %0, ptr %3, align 8, !tbaa !5
  store i64 %1, ptr %4, align 8, !tbaa !68
  call void @llvm.lifetime.start.p0(i64 8, ptr %5) #12
  %6 = call ptr @aofInfoCreate()
  store ptr %6, ptr %5, align 8, !tbaa !5
  %7 = load ptr, ptr %5, align 8, !tbaa !5
  %8 = getelementptr inbounds nuw %struct.aofInfo, ptr %7, i32 0, i32 2
  store i32 105, ptr %8, align 8, !tbaa !17
  %9 = call ptr @sdsempty()
  %10 = load ptr, ptr getelementptr inbounds nuw (%struct.redisServer, ptr @server, i32 0, i32 195), align 8, !tbaa !34
  %11 = load ptr, ptr %3, align 8, !tbaa !5
  %12 = getelementptr inbounds nuw %struct.aofManifest, ptr %11, i32 0, i32 4
  %13 = load i64, ptr %12, align 8, !tbaa !74
  %14 = add nsw i64 %13, 1
  store i64 %14, ptr %12, align 8, !tbaa !74
  %15 = call ptr (ptr, ptr, ...) @sdscatprintf(ptr noundef %9, ptr noundef @.str.38, ptr noundef %10, i64 noundef %14, ptr noundef @.str.40, ptr noundef @.str.37)
  %16 = load ptr, ptr %5, align 8, !tbaa !5
  %17 = getelementptr inbounds nuw %struct.aofInfo, ptr %16, i32 0, i32 0
  store ptr %15, ptr %17, align 8, !tbaa !15
  %18 = load ptr, ptr %3, align 8, !tbaa !5
  %19 = getelementptr inbounds nuw %struct.aofManifest, ptr %18, i32 0, i32 4
  %20 = load i64, ptr %19, align 8, !tbaa !74
  %21 = load ptr, ptr %5, align 8, !tbaa !5
  %22 = getelementptr inbounds nuw %struct.aofInfo, ptr %21, i32 0, i32 1
  store i64 %20, ptr %22, align 8, !tbaa !16
  %23 = load i64, ptr %4, align 8, !tbaa !68
  %24 = load ptr, ptr %5, align 8, !tbaa !5
  %25 = getelementptr inbounds nuw %struct.aofInfo, ptr %24, i32 0, i32 3
  store i64 %23, ptr %25, align 8, !tbaa !9
  %26 = load ptr, ptr %3, align 8, !tbaa !5
  %27 = getelementptr inbounds nuw %struct.aofManifest, ptr %26, i32 0, i32 1
  %28 = load ptr, ptr %27, align 8, !tbaa !25
  %29 = load ptr, ptr %5, align 8, !tbaa !5
  %30 = call ptr @listAddNodeTail(ptr noundef %28, ptr noundef %29)
  %31 = load ptr, ptr %3, align 8, !tbaa !5
  %32 = getelementptr inbounds nuw %struct.aofManifest, ptr %31, i32 0, i32 5
  store i32 1, ptr %32, align 8, !tbaa !75
  %33 = load ptr, ptr %5, align 8, !tbaa !5
  %34 = getelementptr inbounds nuw %struct.aofInfo, ptr %33, i32 0, i32 0
  %35 = load ptr, ptr %34, align 8, !tbaa !15
  call void @llvm.lifetime.end.p0(i64 8, ptr %5) #12
  ret ptr %35
}

; Function Attrs: nounwind uwtable
define dso_local ptr @getLastIncrAofName(ptr noundef %0) #0 {
  %2 = alloca ptr, align 8
  %3 = alloca ptr, align 8
  %4 = alloca ptr, align 8
  %5 = alloca ptr, align 8
  store ptr %0, ptr %3, align 8, !tbaa !5
  %6 = load ptr, ptr %3, align 8, !tbaa !5
  %7 = icmp ne ptr %6, null
  %8 = xor i1 %7, true
  %9 = xor i1 %8, true
  %10 = zext i1 %9 to i32
  %11 = sext i32 %10 to i64
  %12 = call i64 @llvm.expect.i64(i64 %11, i64 1)
  %13 = icmp ne i64 %12, 0
  br i1 %13, label %14, label %15

14:                                               ; preds = %1
  br label %17

15:                                               ; preds = %1
  call void @_serverAssert(ptr noundef @.str.15, ptr noundef @.str.1, i32 noundef 483)
  call void @abort() #14
  unreachable

16:                                               ; No predecessors!
  br label %17

17:                                               ; preds = %16, %14
  %18 = load ptr, ptr %3, align 8, !tbaa !5
  %19 = getelementptr inbounds nuw %struct.aofManifest, ptr %18, i32 0, i32 1
  %20 = load ptr, ptr %19, align 8, !tbaa !25
  %21 = getelementptr inbounds nuw %struct.list, ptr %20, i32 0, i32 5
  %22 = load i64, ptr %21, align 8, !tbaa !77
  %23 = icmp ne i64 %22, 0
  br i1 %23, label %28, label %24

24:                                               ; preds = %17
  %25 = load ptr, ptr %3, align 8, !tbaa !5
  %26 = load i64, ptr getelementptr inbounds nuw (%struct.redisServer, ptr @server, i32 0, i32 271), align 8, !tbaa !78
  %27 = call ptr @getNewIncrAofName(ptr noundef %25, i64 noundef %26)
  store ptr %27, ptr %2, align 8
  br label %39

28:                                               ; preds = %17
  call void @llvm.lifetime.start.p0(i64 8, ptr %4) #12
  %29 = load ptr, ptr %3, align 8, !tbaa !5
  %30 = getelementptr inbounds nuw %struct.aofManifest, ptr %29, i32 0, i32 1
  %31 = load ptr, ptr %30, align 8, !tbaa !25
  %32 = call ptr @listIndex(ptr noundef %31, i64 noundef -1)
  store ptr %32, ptr %4, align 8, !tbaa !59
  call void @llvm.lifetime.start.p0(i64 8, ptr %5) #12
  %33 = load ptr, ptr %4, align 8, !tbaa !59
  %34 = getelementptr inbounds nuw %struct.listNode, ptr %33, i32 0, i32 2
  %35 = load ptr, ptr %34, align 8, !tbaa !60
  store ptr %35, ptr %5, align 8, !tbaa !5
  %36 = load ptr, ptr %5, align 8, !tbaa !5
  %37 = getelementptr inbounds nuw %struct.aofInfo, ptr %36, i32 0, i32 0
  %38 = load ptr, ptr %37, align 8, !tbaa !15
  store ptr %38, ptr %2, align 8
  call void @llvm.lifetime.end.p0(i64 8, ptr %5) #12
  call void @llvm.lifetime.end.p0(i64 8, ptr %4) #12
  br label %39

39:                                               ; preds = %28, %24
  %40 = load ptr, ptr %2, align 8
  ret ptr %40
}