; Function Attrs: nounwind uwtable
define dso_local ptr @getLastIncrAofName(ptr noundef captures(address_is_null) %0) local_unnamed_addr #0 {
  %.not = icmp eq ptr %0, null
  br i1 %.not, label %2, label %3, !prof !5

2:                                                ; preds = %1
  tail call void @_serverAssert(ptr noundef nonnull @.str.15, ptr noundef nonnull @.str.1, i32 noundef 483) #20
  tail call void @abort() #21
  unreachable

3:                                                ; preds = %1
  %4 = getelementptr inbounds nuw i8, ptr %0, i64 8
  %5 = load ptr, ptr %4, align 8, !tbaa !24
  %6 = getelementptr inbounds nuw i8, ptr %5, i64 40
  %7 = load i64, ptr %6, align 8, !tbaa !73
  %.not8 = icmp eq i64 %7, 0
  br i1 %.not8, label %8, label %25

8:                                                ; preds = %3
  %9 = load i64, ptr getelementptr inbounds nuw (i8, ptr @server, i64 7064), align 8, !tbaa !74
  %10 = tail call noalias noundef dereferenceable_or_null(40) ptr @zcalloc(i64 noundef 40) #19
  %11 = getelementptr inbounds nuw i8, ptr %10, i64 24
  %12 = getelementptr inbounds nuw i8, ptr %10, i64 32
  store i64 -1, ptr %12, align 8
  %13 = getelementptr inbounds nuw i8, ptr %10, i64 16
  store i32 105, ptr %13, align 8, !tbaa !15
  %14 = tail call ptr @sdsempty() #20
  %15 = load ptr, ptr getelementptr inbounds nuw (i8, ptr @server, i64 6528), align 8, !tbaa !33
  %16 = getelementptr inbounds nuw i8, ptr %0, i64 32
  %17 = load i64, ptr %16, align 8, !tbaa !69
  %18 = add nsw i64 %17, 1
  store i64 %18, ptr %16, align 8, !tbaa !69
  %19 = tail call ptr (ptr, ptr, ...) @sdscatprintf(ptr noundef %14, ptr noundef nonnull @.str.38, ptr noundef %15, i64 noundef %18, ptr noundef nonnull @.str.40, ptr noundef nonnull @.str.37) #20
  store ptr %19, ptr %10, align 8, !tbaa !6
  %20 = load i64, ptr %16, align 8, !tbaa !69
  %21 = getelementptr inbounds nuw i8, ptr %10, i64 8
  store i64 %20, ptr %21, align 8, !tbaa !14
  store i64 %9, ptr %11, align 8, !tbaa !16
  %22 = load ptr, ptr %4, align 8, !tbaa !24
  %23 = tail call ptr @listAddNodeTail(ptr noundef %22, ptr noundef nonnull %10) #20
  %24 = getelementptr inbounds nuw i8, ptr %0, i64 40
  store i32 1, ptr %24, align 8, !tbaa !70
  br label %29

25:                                               ; preds = %3
  %26 = tail call ptr @listIndex(ptr noundef nonnull %5, i64 noundef -1) #20
  %27 = getelementptr inbounds nuw i8, ptr %26, i64 16
  %28 = load ptr, ptr %27, align 8, !tbaa !58
  br label %29

29:                                               ; preds = %25, %8
  %.0.in = phi ptr [ %28, %25 ], [ %10, %8 ]
  %.0 = load ptr, ptr %.0.in, align 8, !tbaa !6
  ret ptr %.0
}